target datalayout = "e-m:e-p270:32:32-p271:32:32-p272:64:64-i64:64-i128:128-f80:128-n8:16:32:64-S128"
target triple = "x86_64-pc-linux-gnu"

%struct.IndexScanDescData = type { ptr, ptr, ptr, i32, i32, ptr, ptr, i8, i8, i8, i8, i8, ptr, ptr, ptr, ptr, ptr, %struct.ItemPointerData, i8, ptr, i8, ptr, ptr, i8, ptr }
%struct.ItemPointerData = type { %struct.BlockIdData, i16 }
%struct.BlockIdData = type { i16, i16 }
%struct.RelationData = type { %struct.RelFileLocator, ptr, i32, i32, i8, i8, i8, i8, i8, i32, i32, i32, i32, ptr, ptr, i32, %struct.LockInfoData, ptr, ptr, ptr, ptr, ptr, i8, ptr, ptr, ptr, ptr, ptr, ptr, i32, ptr, i8, ptr, ptr, i32, i8, i32, ptr, i8, ptr, ptr, ptr, ptr, ptr, ptr, ptr, i32, ptr, ptr, ptr, ptr, ptr, ptr, ptr, ptr, ptr, ptr, ptr, ptr, ptr, ptr, ptr, ptr, ptr, ptr, ptr, i32, i8, ptr }
%struct.RelFileLocator = type { i32, i32, i32 }
%struct.LockInfoData = type { %struct.LockRelId }
%struct.LockRelId = type { i32, i32 }
%struct.TableAmRoutine = type { i32, ptr, ptr, ptr, ptr, ptr, ptr, ptr, ptr, ptr, ptr, ptr, ptr, ptr, ptr, ptr, ptr, ptr, ptr, ptr, ptr, ptr, ptr, ptr, ptr, ptr, ptr, ptr, ptr, ptr, ptr, ptr, ptr, ptr, ptr, ptr, ptr, ptr, ptr, ptr, ptr, ptr, ptr, ptr, ptr, ptr }
%struct.SysScanDescData = type { ptr, ptr, ptr, ptr, ptr, ptr }
%struct.TableScanDescData = type { ptr, ptr, i32, ptr, %union.anon, i32, ptr }
%union.anon = type { %struct.TBMIterator }
%struct.TBMIterator = type { i8, %union.anon.0 }
%union.anon.0 = type { ptr }
%struct.TupleTableSlot = type { i32, i16, i16, ptr, ptr, ptr, ptr, ptr, %struct.ItemPointerData, i32 }

@.str.4 = private unnamed_addr constant [8 x i8] c"genam.c\00", align 1
@CheckXidAlive = external global i32, align 4
@bsysscan = external global i8, align 1
@.str.5 = private unnamed_addr constant [69 x i8] c"system catalog scans with lossy index conditions are not implemented\00", align 1
@__func__.systable_getnext = private unnamed_addr constant [17 x i8] c"systable_getnext\00", align 1
@.str.11 = private unnamed_addr constant [63 x i8] c"unexpected table_scan_getnextslot call during logical decoding\00", align 1
@.str.12 = private unnamed_addr constant [41 x i8] c"../../../../src/include/access/tableam.h\00", align 1
@__func__.table_scan_getnextslot = private unnamed_addr constant [23 x i8] c"table_scan_getnextslot\00", align 1
@.str.13 = private unnamed_addr constant [47 x i8] c"transaction aborted during system catalog scan\00", align 1
@__func__.HandleConcurrentAbort = private unnamed_addr constant [22 x i8] c"HandleConcurrentAbort\00", align 1

; Function Attrs: inlinehint nounwind uwtable
define internal void @HandleConcurrentAbort() #3 {
  %1 = load i32, ptr @CheckXidAlive, align 4
  %2 = icmp ne i32 %1, 0
  br i1 %2, label %3, label %20

3:                                                ; preds = %0
  %4 = load i32, ptr @CheckXidAlive, align 4
  %5 = call zeroext i1 @TransactionIdIsInProgress(i32 noundef %4)
  br i1 %5, label %20, label %6

6:                                                ; preds = %3
  %7 = load i32, ptr @CheckXidAlive, align 4
  %8 = call zeroext i1 @TransactionIdDidCommit(i32 noundef %7)
  br i1 %8, label %20, label %9

9:                                                ; preds = %6
  br label %10

10:                                               ; preds = %9
  br i1 true, label %11, label %13

11:                                               ; preds = %10
  %12 = call zeroext i1 @errstart_cold(i32 noundef 21, ptr noundef null) #8
  br i1 %12, label %15, label %18

13:                                               ; preds = %10
  %14 = call zeroext i1 @errstart(i32 noundef 21, ptr noundef null)
  br i1 %14, label %15, label %18

15:                                               ; preds = %13, %11
  %16 = call i32 @errcode(i32 noundef 4)
  %17 = call i32 (ptr, ...) @errmsg(ptr noundef @.str.13)
  call void @errfinish(ptr noundef @.str.4, i32 noundef 497, ptr noundef @__func__.HandleConcurrentAbort)
  br label %18

18:                                               ; preds = %15, %13, %11
  unreachable

19:                                               ; No predecessors!
  br label %20

20:                                               ; preds = %19, %6, %3, %0
  ret void
}

; Function Attrs: inlinehint nounwind uwtable
define internal zeroext i1 @table_scan_getnextslot(ptr noundef %0, i32 noundef %1, ptr noundef %2) #3 {
  %4 = alloca ptr, align 8
  %5 = alloca i32, align 4
  %6 = alloca ptr, align 8
  store ptr %0, ptr %4, align 8
  store i32 %1, ptr %5, align 4
  store ptr %2, ptr %6, align 8
  %7 = load ptr, ptr %4, align 8
  %8 = getelementptr inbounds nuw %struct.TableScanDescData, ptr %7, i32 0, i32 0
  %9 = load ptr, ptr %8, align 8
  %10 = getelementptr inbounds nuw %struct.RelationData, ptr %9, i32 0, i32 15
  %11 = load i32, ptr %10, align 8
  %12 = load ptr, ptr %6, align 8
  %13 = getelementptr inbounds nuw %struct.TupleTableSlot, ptr %12, i32 0, i32 9
  store i32 %11, ptr %13, align 8
  %14 = load i32, ptr @CheckXidAlive, align 4
  %15 = icmp ne i32 %14, 0
  br i1 %15, label %16, label %20

16:                                               ; preds = %3
  %17 = load i8, ptr @bsysscan, align 1, !range !4, !noundef !5
  %18 = trunc i8 %17 to i1
  %19 = xor i1 %18, true
  br label %20

20:                                               ; preds = %16, %3
  %21 = phi i1 [ false, %3 ], [ %19, %16 ]
  %22 = zext i1 %21 to i32
  %23 = icmp ne i32 %22, 0
  %24 = zext i1 %23 to i32
  %25 = sext i32 %24 to i64
  %26 = call i64 @llvm.expect.i64(i64 %25, i64 0)
  %27 = icmp ne i64 %26, 0
  br i1 %27, label %28, label %38

28:                                               ; preds = %20
  br label %29

29:                                               ; preds = %28
  br i1 true, label %30, label %32

30:                                               ; preds = %29
  %31 = call zeroext i1 @errstart_cold(i32 noundef 21, ptr noundef null) #8
  br i1 %31, label %34, label %36

32:                                               ; preds = %29
  %33 = call zeroext i1 @errstart(i32 noundef 21, ptr noundef null)
  br i1 %33, label %34, label %36

34:                                               ; preds = %32, %30
  %35 = call i32 (ptr, ...) @errmsg_internal(ptr noundef @.str.11)
  call void @errfinish(ptr noundef @.str.12, i32 noundef 1075, ptr noundef @__func__.table_scan_getnextslot)
  br label %36

36:                                               ; preds = %34, %32, %30
  unreachable

37:                                               ; No predecessors!
  br label %38

38:                                               ; preds = %37, %20
  %39 = load ptr, ptr %4, align 8
  %40 = getelementptr inbounds nuw %struct.TableScanDescData, ptr %39, i32 0, i32 0
  %41 = load ptr, ptr %40, align 8
  %42 = getelementptr inbounds nuw %struct.RelationData, ptr %41, i32 0, i32 47
  %43 = load ptr, ptr %42, align 8
  %44 = getelementptr inbounds nuw %struct.TableAmRoutine, ptr %43, i32 0, i32 5
  %45 = load ptr, ptr %44, align 8
  %46 = load ptr, ptr %4, align 8
  %47 = load i32, ptr %5, align 4
  %48 = load ptr, ptr %6, align 8
  %49 = call zeroext i1 %45(ptr noundef %46, i32 noundef %47, ptr noundef %48)
  ret i1 %49
}

; Function Attrs: nounwind uwtable
define dso_local ptr @systable_getnext(ptr noundef %0) #0 {
  %2 = alloca ptr, align 8
  %3 = alloca ptr, align 8
  %4 = alloca i8, align 1
  %5 = alloca i8, align 1
  store ptr %0, ptr %2, align 8
  call void @llvm.lifetime.start.p0(i64 8, ptr %3) #7
  store ptr null, ptr %3, align 8
  %6 = load ptr, ptr %2, align 8
  %7 = getelementptr inbounds nuw %struct.SysScanDescData, ptr %6, i32 0, i32 1
  %8 = load ptr, ptr %7, align 8
  %9 = icmp ne ptr %8, null
  br i1 %9, label %10, label %42

10:                                               ; preds = %1
  %11 = load ptr, ptr %2, align 8
  %12 = getelementptr inbounds nuw %struct.SysScanDescData, ptr %11, i32 0, i32 3
  %13 = load ptr, ptr %12, align 8
  %14 = load ptr, ptr %2, align 8
  %15 = getelementptr inbounds nuw %struct.SysScanDescData, ptr %14, i32 0, i32 5
  %16 = load ptr, ptr %15, align 8
  %17 = call zeroext i1 @index_getnext_slot(ptr noundef %13, i32 noundef 1, ptr noundef %16)
  br i1 %17, label %18, label %41

18:                                               ; preds = %10
  call void @llvm.lifetime.start.p0(i64 1, ptr %4) #7
  %19 = load ptr, ptr %2, align 8
  %20 = getelementptr inbounds nuw %struct.SysScanDescData, ptr %19, i32 0, i32 5
  %21 = load ptr, ptr %20, align 8
  %22 = call ptr @ExecFetchSlotHeapTuple(ptr noundef %21, i1 noundef zeroext false, ptr noundef %4)
  store ptr %22, ptr %3, align 8
  %23 = load ptr, ptr %2, align 8
  %24 = getelementptr inbounds nuw %struct.SysScanDescData, ptr %23, i32 0, i32 3
  %25 = load ptr, ptr %24, align 8
  %26 = getelementptr inbounds nuw %struct.IndexScanDescData, ptr %25, i32 0, i32 20
  %27 = load i8, ptr %26, align 8, !range !4, !noundef !5
  %28 = trunc i8 %27 to i1
  br i1 %28, label %29, label %40

29:                                               ; preds = %18
  br label %30

30:                                               ; preds = %29
  br i1 true, label %31, label %33

31:                                               ; preds = %30
  %32 = call zeroext i1 @errstart_cold(i32 noundef 21, ptr noundef null) #8
  br i1 %32, label %35, label %37

33:                                               ; preds = %30
  %34 = call zeroext i1 @errstart(i32 noundef 21, ptr noundef null)
  br i1 %34, label %35, label %37

35:                                               ; preds = %33, %31
  %36 = call i32 (ptr, ...) @errmsg_internal(ptr noundef @.str.5)
  call void @errfinish(ptr noundef @.str.4, i32 noundef 535, ptr noundef @__func__.systable_getnext)
  br label %37

37:                                               ; preds = %35, %33, %31
  unreachable

38:                                               ; No predecessors!
  br label %39

39:                                               ; preds = %38
  br label %40

40:                                               ; preds = %39, %18
  call void @llvm.lifetime.end.p0(i64 1, ptr %4) #7
  br label %41

41:                                               ; preds = %40, %10
  br label %56

42:                                               ; preds = %1
  %43 = load ptr, ptr %2, align 8
  %44 = getelementptr inbounds nuw %struct.SysScanDescData, ptr %43, i32 0, i32 2
  %45 = load ptr, ptr %44, align 8
  %46 = load ptr, ptr %2, align 8
  %47 = getelementptr inbounds nuw %struct.SysScanDescData, ptr %46, i32 0, i32 5
  %48 = load ptr, ptr %47, align 8
  %49 = call zeroext i1 @table_scan_getnextslot(ptr noundef %45, i32 noundef 1, ptr noundef %48)
  br i1 %49, label %50, label %55

50:                                               ; preds = %42
  call void @llvm.lifetime.start.p0(i64 1, ptr %5) #7
  %51 = load ptr, ptr %2, align 8
  %52 = getelementptr inbounds nuw %struct.SysScanDescData, ptr %51, i32 0, i32 5
  %53 = load ptr, ptr %52, align 8
  %54 = call ptr @ExecFetchSlotHeapTuple(ptr noundef %53, i1 noundef zeroext false, ptr noundef %5)
  store ptr %54, ptr %3, align 8
  call void @llvm.lifetime.end.p0(i64 1, ptr %5) #7
  br label %55

55:                                               ; preds = %50, %42
  br label %56

56:                                               ; preds = %55, %41
  call void @HandleConcurrentAbort()
  %57 = load ptr, ptr %3, align 8
  call void @llvm.lifetime.end.p0(i64 8, ptr %3) #7
  ret ptr %57
}