; Function Attrs: nounwind uwtable
define dso_local ptr @systable_getnext(ptr noundef readonly captures(none) %0) local_unnamed_addr #0 {
  %2 = alloca i8, align 1
  %3 = alloca i8, align 1
  %4 = getelementptr inbounds nuw i8, ptr %0, i64 8
  %5 = load ptr, ptr %4, align 8
  %.not = icmp eq ptr %5, null
  %6 = getelementptr inbounds nuw i8, ptr %0, i64 40
  %7 = load ptr, ptr %6, align 8
  br i1 %.not, label %23, label %8

8:                                                ; preds = %1
  %9 = getelementptr inbounds nuw i8, ptr %0, i64 24
  %10 = load ptr, ptr %9, align 8
  %11 = tail call zeroext i1 @index_getnext_slot(ptr noundef %10, i32 noundef 1, ptr noundef %7) #7
  br i1 %11, label %12, label %46

12:                                               ; preds = %8
  call void @llvm.lifetime.start.p0(i64 1, ptr nonnull %2) #7
  %13 = load ptr, ptr %6, align 8
  %14 = call ptr @ExecFetchSlotHeapTuple(ptr noundef %13, i1 noundef zeroext false, ptr noundef nonnull %2) #7
  %15 = load ptr, ptr %9, align 8
  %16 = getelementptr inbounds nuw i8, ptr %15, i64 112
  %17 = load i8, ptr %16, align 8, !range !6, !noundef !7
  %18 = trunc nuw i8 %17 to i1
  br i1 %18, label %19, label %22

19:                                               ; preds = %12
  %20 = call zeroext i1 @errstart_cold(i32 noundef 21, ptr noundef null) #8
  call void @llvm.assume(i1 %20)
  %21 = call i32 (ptr, ...) @errmsg_internal(ptr noundef nonnull @.str.5) #7
  call void @errfinish(ptr noundef nonnull @.str.4, i32 noundef 535, ptr noundef nonnull @__func__.systable_getnext) #7
  unreachable

22:                                               ; preds = %12
  call void @llvm.lifetime.end.p0(i64 1, ptr nonnull %2) #7
  br label %46

23:                                               ; preds = %1
  %24 = getelementptr inbounds nuw i8, ptr %0, i64 16
  %25 = load ptr, ptr %24, align 8
  %26 = load ptr, ptr %25, align 8
  %27 = getelementptr inbounds nuw i8, ptr %26, i64 72
  %28 = load i32, ptr %27, align 8
  %29 = getelementptr inbounds nuw i8, ptr %7, i64 56
  store i32 %28, ptr %29, align 8
  %30 = load i32, ptr @CheckXidAlive, align 4
  %31 = icmp eq i32 %30, 0
  %32 = load i8, ptr @bsysscan, align 1, !range !6
  %33 = trunc nuw i8 %32 to i1
  %.not5.i = select i1 %31, i1 true, i1 %33
  br i1 %.not5.i, label %table_scan_getnextslot.exit, label %34, !prof !12

34:                                               ; preds = %23
  %35 = tail call zeroext i1 @errstart_cold(i32 noundef 21, ptr noundef null) #8
  tail call void @llvm.assume(i1 %35)
  %36 = tail call i32 (ptr, ...) @errmsg_internal(ptr noundef nonnull @.str.11) #7
  tail call void @errfinish(ptr noundef nonnull @.str.12, i32 noundef 1075, ptr noundef nonnull @__func__.table_scan_getnextslot) #7
  unreachable

table_scan_getnextslot.exit:                      ; preds = %23
  %37 = load ptr, ptr %25, align 8
  %38 = getelementptr inbounds nuw i8, ptr %37, i64 320
  %39 = load ptr, ptr %38, align 8
  %40 = getelementptr inbounds nuw i8, ptr %39, i64 40
  %41 = load ptr, ptr %40, align 8
  %42 = tail call zeroext i1 %41(ptr noundef nonnull %25, i32 noundef 1, ptr noundef nonnull %7) #7
  br i1 %42, label %43, label %46

43:                                               ; preds = %table_scan_getnextslot.exit
  call void @llvm.lifetime.start.p0(i64 1, ptr nonnull %3) #7
  %44 = load ptr, ptr %6, align 8
  %45 = call ptr @ExecFetchSlotHeapTuple(ptr noundef %44, i1 noundef zeroext false, ptr noundef nonnull %3) #7
  call void @llvm.lifetime.end.p0(i64 1, ptr nonnull %3) #7
  br label %46

46:                                               ; preds = %table_scan_getnextslot.exit, %43, %8, %22
  %.0 = phi ptr [ %14, %22 ], [ null, %8 ], [ %45, %43 ], [ null, %table_scan_getnextslot.exit ]
  %47 = load i32, ptr @CheckXidAlive, align 4
  %.not.i = icmp eq i32 %47, 0
  br i1 %.not.i, label %HandleConcurrentAbort.exit, label %48

48:                                               ; preds = %46
  %49 = call zeroext i1 @TransactionIdIsInProgress(i32 noundef %47) #7
  br i1 %49, label %HandleConcurrentAbort.exit, label %50

50:                                               ; preds = %48
  %51 = load i32, ptr @CheckXidAlive, align 4
  %52 = call zeroext i1 @TransactionIdDidCommit(i32 noundef %51) #7
  br i1 %52, label %HandleConcurrentAbort.exit, label %53

53:                                               ; preds = %50
  %54 = call zeroext i1 @errstart_cold(i32 noundef 21, ptr noundef null) #8
  call void @llvm.assume(i1 %54)
  %55 = call i32 @errcode(i32 noundef 4) #7
  %56 = call i32 (ptr, ...) @errmsg(ptr noundef nonnull @.str.13) #7
  call void @errfinish(ptr noundef nonnull @.str.4, i32 noundef 497, ptr noundef nonnull @__func__.HandleConcurrentAbort) #7
  unreachable

HandleConcurrentAbort.exit:                       ; preds = %46, %48, %50
  ret ptr %.0
}